Certificate:
    Data:
        Version: 1 (0x0)
        Serial Number: 2 (0x2)
        Signature Algorithm: md5WithRSAEncryption
        Issuer: O=KnowARC, OU=UiO, CN=CA/emailAddress=weizhongqiang@gmail.com
        Validity
            Not Before: Oct  6 12:06:09 2010 GMT
            Not After : Oct  5 12:06:09 2012 GMT
        Subject: O=KnowARC, OU=UiO, CN=squark.uio.no
        Subject Public Key Info:
            Public Key Algorithm: rsaEncryption
            RSA Public Key: (1024 bit)
                Modulus (1024 bit):
                    00:b7:28:ff:c1:48:22:43:a4:63:71:00:a1:d6:3e:
                    41:4d:ff:cb:1c:ee:a6:34:5a:4e:f7:13:a3:c7:b7:
                    aa:5f:9f:af:30:d7:f6:a0:35:ac:aa:f9:f3:3b:db:
                    3a:64:7f:10:4a:3b:93:07:7f:90:bb:ee:45:ee:65:
                    9b:e8:b1:8f:e6:7c:42:81:c3:43:0a:90:0d:81:00:
                    94:77:e0:80:fc:3b:38:92:a1:a9:0e:6e:19:c0:2d:
                    91:6e:e2:0e:06:a8:1a:64:0e:e2:c9:74:f1:3b:55:
                    8e:71:04:4d:08:2d:39:ed:05:fc:98:28:ed:22:1d:
                    b3:e6:73:29:b1:c7:07:4f:e1
                Exponent: 65537 (0x10001)
    Signature Algorithm: md5WithRSAEncryption
        b1:ae:50:ae:62:f0:97:59:65:f8:61:6d:03:b1:ae:e4:d7:51:
        37:01:4c:de:d7:96:5c:80:5e:12:a9:33:cd:20:e5:6e:0a:8f:
        ee:a9:d3:51:bd:0c:48:95:ac:3d:c4:0f:3f:d2:21:20:cf:86:
        5a:41:75:34:2a:ab:65:dd:ef:35:0c:b9:0f:4f:c6:3a:82:3f:
        19:89:43:20:8d:7b:e3:db:88:85:82:27:f3:e8:05:69:0b:8b:
        f4:88:a9:97:8e:75:0f:6a:b1:73:74:01:a0:1b:e3:68:83:f4:
        ad:cc:ab:6a:30:17:4a:4f:53:0f:39:e3:5f:17:9b:bc:67:c7:
        32:c3:82:bd:7f:a8:b8:08:2e:4c:5d:b7:e7:3b:c6:92:b3:d3:
        2a:c7:f4:1d:0d:84:b4:4f:d2:6a:e6:ca:5b:70:c9:21:30:86:
        f3:d6:c8:af:ac:c0:3d:93:b6:ce:a0:9b:e8:0b:1b:16:84:5d:
        18:d4:81:03:50:6e:8d:0b:ef:ef:30:6c:25:04:c1:3f:27:ff:
        65:de:ee:33:6b:35:a3:aa:d1:8f:18:52:d0:c9:ba:03:08:37:
        d4:aa:98:61:1e:03:09:5b:b8:79:4e:58:1d:55:3f:3b:fb:bf:
        37:2b:ed:81:a0:dc:11:56:2b:1f:dc:fc:ea:ab:cd:66:03:b0:
        f1:ba:47:d8
-----BEGIN CERTIFICATE-----
MIICfTCCAWUCAQIwDQYJKoZIhvcNAQEEBQAwVTEQMA4GA1UEChMHS25vd0FSQzEM
MAoGA1UECxMDVWlPMQswCQYDVQQDEwJDQTEmMCQGCSqGSIb3DQEJARYXd2Vpemhv
bmdxaWFuZ0BnbWFpbC5jb20wHhcNMTAxMDA2MTIwNjA5WhcNMTIxMDA1MTIwNjA5
WjA4MRAwDgYDVQQKEwdLbm93QVJDMQwwCgYDVQQLEwNVaU8xFjAUBgNVBAMTDXNx
dWFyay51aW8ubm8wgZ8wDQYJKoZIhvcNAQEBBQADgY0AMIGJAoGBALco/8FIIkOk
Y3EAodY+QU3/yxzupjRaTvcTo8e3ql+frzDX9qA1rKr58zvbOmR/EEo7kwd/kLvu
Re5lm+ixj+Z8QoHDQwqQDYEAlHfggPw7OJKhqQ5uGcAtkW7iDgaoGmQO4sl08TtV
jnEETQgtOe0F/Jgo7SIds+ZzKbHHB0/hAgMBAAEwDQYJKoZIhvcNAQEEBQADggEB
ALGuUK5i8JdZZfhhbQOxruTXUTcBTN7XllyAXhKpM80g5W4Kj+6p01G9DEiVrD3E
Dz/SISDPhlpBdTQqq2Xd7zUMuQ9PxjqCPxmJQyCNe+PbiIWCJ/PoBWkLi/SIqZeO
dQ9qsXN0AaAb42iD9K3Mq2owF0pPUw85418Xm7xnxzLDgr1/qLgILkxdt+c7xpKz
0yrH9B0NhLRP0mrmyltwySEwhvPWyK+swD2Tts6gm+gLGxaEXRjUgQNQbo0L7+8w
bCUEwT8n/2Xe7jNrNaOq0Y8YUtDJugMIN9SqmGEeAwlbuHlOWB1VPzv7vzcr7YGg
3BFWKx/c/OqrzWYDsPG6R9g=
-----END CERTIFICATE-----
