Certificate:
    Data:
        Version: 3 (0x2)
        Serial Number: 1 (0x1)
        Signature Algorithm: md5WithRSAEncryption
        Issuer: C=NO, ST=Oslo, O=UiO, CN=CA
        Validity
            Not Before: Nov  6 15:18:49 2007 GMT
            Not After : Nov  5 15:18:49 2008 GMT
        Subject: C=NO, ST=Oslo, O=UiO, CN=test
        Subject Public Key Info:
            Public Key Algorithm: rsaEncryption
            RSA Public Key: (1024 bit)
                Modulus (1024 bit):
                    00:c5:19:a4:36:0d:60:db:a8:aa:88:44:90:fe:30:
                    fc:c9:c6:02:25:d5:b1:95:12:3e:e1:42:84:bd:87:
                    4f:6b:04:ed:54:36:fd:1b:05:29:1c:80:15:73:5a:
                    04:83:dc:a6:82:45:da:e4:ef:e8:b9:5c:d0:6f:45:
                    e6:fe:06:e5:9c:99:8a:27:b1:82:5d:c7:b6:79:a2:
                    31:c8:16:89:ef:dd:e5:77:d8:7f:4a:3e:db:18:68:
                    7d:db:20:c5:be:5d:d8:34:45:c9:45:71:90:a9:c1:
                    45:84:92:79:b4:7d:c2:c7:65:c2:d9:5d:b9:20:f1:
                    b0:dd:b6:08:52:13:a8:bd:c5
                Exponent: 65537 (0x10001)
        X509v3 extensions:
            X509v3 Basic Constraints: 
                CA:FALSE
            Netscape Comment: 
                OpenSSL Generated Certificate
            X509v3 Subject Key Identifier: 
                6B:57:D9:C5:15:7D:25:6C:D7:12:CA:2F:0C:2C:72:93:68:9F:67:6E
            X509v3 Authority Key Identifier: 
                keyid:B8:39:8D:48:46:6E:1F:AE:8C:12:31:EA:46:9B:15:8F:84:E4:9A:D6
                DirName:/C=NO/ST=Oslo/O=UiO/CN=CA
                serial:00

    Signature Algorithm: md5WithRSAEncryption
        08:ae:a5:7e:23:d6:1b:5e:fa:6c:46:fc:09:2c:e1:48:54:8b:
        97:0b:2f:25:e5:18:df:4a:b7:78:50:6d:e8:5f:77:34:9e:6a:
        f9:a1:ef:77:5e:89:80:27:9d:b9:50:b3:86:4a:1e:70:f2:49:
        9f:18:0f:7a:c9:48:b6:2d:19:9d:33:d6:50:cb:25:56:2c:36:
        a0:53:47:6d:99:d7:09:9b:60:9e:75:e4:71:23:e4:a1:b4:81:
        37:3d:17:3f:39:31:23:cf:f7:6f:63:a8:03:fe:38:87:0d:4a:
        ff:21:ca:28:1c:c4:80:a4:8b:83:65:75:af:48:d5:92:aa:5d:
        12:c2
-----BEGIN CERTIFICATE-----
MIICozCCAgygAwIBAgIBATANBgkqhkiG9w0BAQQFADA3MQswCQYDVQQGEwJOTzEN
MAsGA1UECBMET3NsbzEMMAoGA1UEChMDVWlPMQswCQYDVQQDEwJDQTAeFw0wNzEx
MDYxNTE4NDlaFw0wODExMDUxNTE4NDlaMDkxCzAJBgNVBAYTAk5PMQ0wCwYDVQQI
EwRPc2xvMQwwCgYDVQQKEwNVaU8xDTALBgNVBAMTBHRlc3QwgZ8wDQYJKoZIhvcN
AQEBBQADgY0AMIGJAoGBAMUZpDYNYNuoqohEkP4w/MnGAiXVsZUSPuFChL2HT2sE
7VQ2/RsFKRyAFXNaBIPcpoJF2uTv6Llc0G9F5v4G5ZyZiiexgl3HtnmiMcgWie/d
5XfYf0o+2xhofdsgxb5d2DRFyUVxkKnBRYSSebR9wsdlwtlduSDxsN22CFITqL3F
AgMBAAGjgbwwgbkwCQYDVR0TBAIwADAsBglghkgBhvhCAQ0EHxYdT3BlblNTTCBH
ZW5lcmF0ZWQgQ2VydGlmaWNhdGUwHQYDVR0OBBYEFGtX2cUVfSVs1xLKLwwscpNo
n2duMF8GA1UdIwRYMFaAFLg5jUhGbh+ujBIx6kabFY+E5JrWoTukOTA3MQswCQYD
VQQGEwJOTzENMAsGA1UECBMET3NsbzEMMAoGA1UEChMDVWlPMQswCQYDVQQDEwJD
QYIBADANBgkqhkiG9w0BAQQFAAOBgQAIrqV+I9YbXvpsRvwJLOFIVIuXCy8l5Rjf
Srd4UG3oX3c0nmr5oe93XomAJ525ULOGSh5w8kmfGA96yUi2LRmdM9ZQyyVWLDag
U0dtmdcJm2CedeRxI+ShtIE3PRc/OTEjz/dvY6gD/jiHDUr/IcooHMSApIuDZXWv
SNWSql0Swg==
-----END CERTIFICATE-----
