Certificate:
    Data:
        Version: 1 (0x0)
        Serial Number: 0 (0x0)
        Signature Algorithm: md5WithRSAEncryption
        Issuer: O=KnowARC, OU=UiO, CN=CA/emailAddress=weizhongqiang@gmail.com
        Validity
            Not Before: Sep  2 21:55:36 2008 GMT
            Not After : Sep  2 21:55:36 2010 GMT
        Subject: O=KnowARC, OU=UiO, CN=squark.uio.no
        Subject Public Key Info:
            Public Key Algorithm: rsaEncryption
            RSA Public Key: (1024 bit)
                Modulus (1024 bit):
                    00:ba:2e:5a:81:51:6b:d1:90:9d:87:53:1e:03:dd:
                    22:75:d4:dd:49:57:21:42:96:a7:2d:85:1e:48:66:
                    8d:b5:37:2d:ef:a4:05:7c:b0:97:21:81:2f:bb:81:
                    8d:10:17:64:66:b4:da:52:3b:ef:7d:5c:26:6f:c2:
                    b5:34:cc:f5:f5:ad:d0:eb:0c:c4:15:bb:4e:e6:05:
                    48:f4:87:f9:17:65:de:e3:cc:c0:36:e4:37:7d:a2:
                    18:fd:90:07:66:2b:63:72:e0:77:a1:00:f4:45:70:
                    c5:30:75:ee:7e:c7:2f:fa:0e:1e:06:cc:66:06:71:
                    a4:64:23:34:e5:f5:40:39:5b
                Exponent: 65537 (0x10001)
    Signature Algorithm: md5WithRSAEncryption
        d3:15:bc:5d:86:01:a7:cf:c5:e2:de:69:5a:78:62:d1:54:bd:
        9a:92:8a:78:64:94:17:6e:5a:43:65:49:a8:5d:86:8b:23:2e:
        06:b3:76:5e:13:6b:33:14:de:a2:b9:c4:5b:50:f7:2b:4b:86:
        6a:00:9c:f2:9e:9d:ea:d3:85:6c:d3:9c:f1:ac:98:d3:65:c8:
        3c:44:a8:6e:c1:57:bb:e1:19:ab:7c:1e:c9:ca:0e:d0:a3:ca:
        a0:51:dd:58:c3:9d:68:3c:86:21:f5:fb:3c:9a:98:b3:e3:b4:
        bd:9f:cf:34:1d:7e:65:6f:f6:00:47:be:07:a8:2d:8d:58:05:
        77:18:64:1a:65:35:63:71:6c:2d:6d:29:43:3f:a9:82:5a:bf:
        2b:59:81:00:0c:c4:64:cb:e3:3b:8c:fb:e6:d1:28:41:dc:90:
        f5:58:8f:47:99:05:5b:9d:66:96:10:0e:79:e4:49:3d:b1:5a:
        0d:f4:31:2c:55:07:cf:3a:22:1e:cb:64:65:15:37:12:70:4a:
        32:ea:01:8b:94:82:8c:0d:2c:98:be:66:71:7b:fb:c0:63:d9:
        d3:4e:a3:6d:15:31:84:3a:bc:41:5b:0b:8c:a7:3e:b3:2b:0d:
        39:fa:33:6e:9d:93:27:bd:ed:07:3e:3c:b2:01:9d:1a:60:b5:
        17:36:aa:0d
-----BEGIN CERTIFICATE-----
MIICfTCCAWUCAQAwDQYJKoZIhvcNAQEEBQAwVTEQMA4GA1UEChMHS25vd0FSQzEM
MAoGA1UECxMDVWlPMQswCQYDVQQDEwJDQTEmMCQGCSqGSIb3DQEJARYXd2Vpemhv
bmdxaWFuZ0BnbWFpbC5jb20wHhcNMDgwOTAyMjE1NTM2WhcNMTAwOTAyMjE1NTM2
WjA4MRAwDgYDVQQKEwdLbm93QVJDMQwwCgYDVQQLEwNVaU8xFjAUBgNVBAMTDXNx
dWFyay51aW8ubm8wgZ8wDQYJKoZIhvcNAQEBBQADgY0AMIGJAoGBALouWoFRa9GQ
nYdTHgPdInXU3UlXIUKWpy2FHkhmjbU3Le+kBXywlyGBL7uBjRAXZGa02lI7731c
Jm/CtTTM9fWt0OsMxBW7TuYFSPSH+Rdl3uPMwDbkN32iGP2QB2YrY3Lgd6EA9EVw
xTB17n7HL/oOHgbMZgZxpGQjNOX1QDlbAgMBAAEwDQYJKoZIhvcNAQEEBQADggEB
ANMVvF2GAafPxeLeaVp4YtFUvZqSinhklBduWkNlSahdhosjLgazdl4TazMU3qK5
xFtQ9ytLhmoAnPKenerThWzTnPGsmNNlyDxEqG7BV7vhGat8HsnKDtCjyqBR3VjD
nWg8hiH1+zyamLPjtL2fzzQdfmVv9gBHvgeoLY1YBXcYZBplNWNxbC1tKUM/qYJa
vytZgQAMxGTL4zuM++bRKEHckPVYj0eZBVudZpYQDnnkST2xWg30MSxVB886Ih7L
ZGUVNxJwSjLqAYuUgowNLJi+ZnF7+8Bj2dNOo20VMYQ6vEFbC4ynPrMrDTn6M26d
kye97Qc+PLIBnRpgtRc2qg0=
-----END CERTIFICATE-----
